; ModuleID = '32/1808.c'
source_filename = "32/1808.c"
target datalayout = "e-m:e-p270:32:32-p271:32:32-p272:64:64-i64:64-f80:128-n8:16:32:64-S128"
target triple = "x86_64-pc-linux-gnu"

@.str = private unnamed_addr constant [3 x i8] c"%d\00", align 1
@.str.1 = private unnamed_addr constant [3 x i8] c"%s\00", align 1
@.str.2 = private unnamed_addr constant [3 x i8] c"%c\00", align 1
@.str.3 = private unnamed_addr constant [2 x i8] c"\0A\00", align 1

; Function Attrs: noinline nounwind uwtable
define dso_local void @main() #0 {
  %1 = alloca [100 x i8], align 16
  %2 = alloca [100 x i8], align 16
  %3 = alloca [100 x i8], align 16
  %4 = alloca i32, align 4
  %5 = alloca i32, align 4
  %6 = alloca i32, align 4
  %7 = alloca i32, align 4
  %8 = alloca i32, align 4
  %9 = alloca i32, align 4
  %10 = bitcast [100 x i8]* %3 to i8*
  call void @llvm.memset.p0i8.i64(i8* align 16 %10, i8 0, i64 100, i1 false)
  store i32 1, i32* %9, align 4
  %11 = call i32 (i8*, ...) @__isoc99_scanf(i8* getelementptr inbounds ([3 x i8], [3 x i8]* @.str, i64 0, i64 0), i32* %8)
  br label %12

12:                                               ; preds = %159, %0
  %13 = load i32, i32* %9, align 4
  %14 = load i32, i32* %8, align 4
  %15 = icmp sle i32 %13, %14
  br i1 %15, label %16, label %163

16:                                               ; preds = %12
  %17 = getelementptr inbounds [100 x i8], [100 x i8]* %1, i64 0, i64 0
  %18 = call i32 (i8*, ...) @__isoc99_scanf(i8* getelementptr inbounds ([3 x i8], [3 x i8]* @.str.1, i64 0, i64 0), i8* %17)
  %19 = getelementptr inbounds [100 x i8], [100 x i8]* %2, i64 0, i64 0
  %20 = call i32 (i8*, ...) @__isoc99_scanf(i8* getelementptr inbounds ([3 x i8], [3 x i8]* @.str.1, i64 0, i64 0), i8* %19)
  %21 = getelementptr inbounds [100 x i8], [100 x i8]* %1, i64 0, i64 0
  %22 = call i64 @strlen(i8* %21) #4
  %23 = trunc i64 %22 to i32
  store i32 %23, i32* %4, align 4
  %24 = getelementptr inbounds [100 x i8], [100 x i8]* %2, i64 0, i64 0
  %25 = call i64 @strlen(i8* %24) #4
  %26 = trunc i64 %25 to i32
  store i32 %26, i32* %5, align 4
  %27 = load i32, i32* %4, align 4
  %28 = sub nsw i32 %27, 1
  store i32 %28, i32* %6, align 4
  %29 = load i32, i32* %5, align 4
  %30 = sub nsw i32 %29, 1
  store i32 %30, i32* %7, align 4
  br label %31

31:                                               ; preds = %102, %16
  %32 = load i32, i32* %6, align 4
  %33 = load i32, i32* %4, align 4
  %34 = load i32, i32* %5, align 4
  %35 = sub nsw i32 %33, %34
  %36 = icmp sge i32 %32, %35
  br i1 %36, label %37, label %40

37:                                               ; preds = %31
  %38 = load i32, i32* %5, align 4
  %39 = icmp sge i32 %38, 0
  br label %40

40:                                               ; preds = %37, %31
  %41 = phi i1 [ false, %31 ], [ %39, %37 ]
  br i1 %41, label %42, label %107

42:                                               ; preds = %40
  %43 = load i32, i32* %6, align 4
  %44 = sext i32 %43 to i64
  %45 = getelementptr inbounds [100 x i8], [100 x i8]* %1, i64 0, i64 %44
  %46 = load i8, i8* %45, align 1
  %47 = sext i8 %46 to i32
  %48 = load i32, i32* %7, align 4
  %49 = sext i32 %48 to i64
  %50 = getelementptr inbounds [100 x i8], [100 x i8]* %2, i64 0, i64 %49
  %51 = load i8, i8* %50, align 1
  %52 = sext i8 %51 to i32
  %53 = icmp sge i32 %47, %52
  br i1 %53, label %54, label %71

54:                                               ; preds = %42
  %55 = load i32, i32* %6, align 4
  %56 = sext i32 %55 to i64
  %57 = getelementptr inbounds [100 x i8], [100 x i8]* %1, i64 0, i64 %56
  %58 = load i8, i8* %57, align 1
  %59 = sext i8 %58 to i32
  %60 = load i32, i32* %7, align 4
  %61 = sext i32 %60 to i64
  %62 = getelementptr inbounds [100 x i8], [100 x i8]* %2, i64 0, i64 %61
  %63 = load i8, i8* %62, align 1
  %64 = sext i8 %63 to i32
  %65 = sub nsw i32 %59, %64
  %66 = add nsw i32 %65, 48
  %67 = trunc i32 %66 to i8
  %68 = load i32, i32* %6, align 4
  %69 = sext i32 %68 to i64
  %70 = getelementptr inbounds [100 x i8], [100 x i8]* %3, i64 0, i64 %69
  store i8 %67, i8* %70, align 1
  br label %101

71:                                               ; preds = %42
  %72 = load i32, i32* %6, align 4
  %73 = sext i32 %72 to i64
  %74 = getelementptr inbounds [100 x i8], [100 x i8]* %1, i64 0, i64 %73
  %75 = load i8, i8* %74, align 1
  %76 = sext i8 %75 to i32
  %77 = load i32, i32* %7, align 4
  %78 = sext i32 %77 to i64
  %79 = getelementptr inbounds [100 x i8], [100 x i8]* %2, i64 0, i64 %78
  %80 = load i8, i8* %79, align 1
  %81 = sext i8 %80 to i32
  %82 = sub nsw i32 %76, %81
  %83 = add nsw i32 %82, 10
  %84 = add nsw i32 %83, 48
  %85 = trunc i32 %84 to i8
  %86 = load i32, i32* %6, align 4
  %87 = sext i32 %86 to i64
  %88 = getelementptr inbounds [100 x i8], [100 x i8]* %3, i64 0, i64 %87
  store i8 %85, i8* %88, align 1
  %89 = load i32, i32* %6, align 4
  %90 = sub nsw i32 %89, 1
  %91 = sext i32 %90 to i64
  %92 = getelementptr inbounds [100 x i8], [100 x i8]* %1, i64 0, i64 %91
  %93 = load i8, i8* %92, align 1
  %94 = sext i8 %93 to i32
  %95 = sub nsw i32 %94, 1
  %96 = trunc i32 %95 to i8
  %97 = load i32, i32* %6, align 4
  %98 = sub nsw i32 %97, 1
  %99 = sext i32 %98 to i64
  %100 = getelementptr inbounds [100 x i8], [100 x i8]* %1, i64 0, i64 %99
  store i8 %96, i8* %100, align 1
  br label %101

101:                                              ; preds = %71, %54
  br label %102

102:                                              ; preds = %101
  %103 = load i32, i32* %6, align 4
  %104 = add nsw i32 %103, -1
  store i32 %104, i32* %6, align 4
  %105 = load i32, i32* %7, align 4
  %106 = add nsw i32 %105, -1
  store i32 %106, i32* %7, align 4
  br label %31

107:                                              ; preds = %40
  %108 = load i32, i32* %4, align 4
  %109 = load i32, i32* %5, align 4
  %110 = sub nsw i32 %108, %109
  %111 = sub nsw i32 %110, 1
  store i32 %111, i32* %6, align 4
  br label %112

112:                                              ; preds = %123, %107
  %113 = load i32, i32* %6, align 4
  %114 = icmp sge i32 %113, 0
  br i1 %114, label %115, label %126

115:                                              ; preds = %112
  %116 = load i32, i32* %6, align 4
  %117 = sext i32 %116 to i64
  %118 = getelementptr inbounds [100 x i8], [100 x i8]* %1, i64 0, i64 %117
  %119 = load i8, i8* %118, align 1
  %120 = load i32, i32* %6, align 4
  %121 = sext i32 %120 to i64
  %122 = getelementptr inbounds [100 x i8], [100 x i8]* %3, i64 0, i64 %121
  store i8 %119, i8* %122, align 1
  br label %123

123:                                              ; preds = %115
  %124 = load i32, i32* %6, align 4
  %125 = add nsw i32 %124, -1
  store i32 %125, i32* %6, align 4
  br label %112

126:                                              ; preds = %112
  store i32 0, i32* %6, align 4
  br label %127

127:                                              ; preds = %140, %126
  %128 = load i32, i32* %6, align 4
  %129 = load i32, i32* %4, align 4
  %130 = icmp slt i32 %128, %129
  br i1 %130, label %131, label %143

131:                                              ; preds = %127
  %132 = load i32, i32* %6, align 4
  %133 = sext i32 %132 to i64
  %134 = getelementptr inbounds [100 x i8], [100 x i8]* %3, i64 0, i64 %133
  %135 = load i8, i8* %134, align 1
  %136 = sext i8 %135 to i32
  %137 = icmp ne i32 %136, 48
  br i1 %137, label %138, label %139

138:                                              ; preds = %131
  br label %143

139:                                              ; preds = %131
  br label %140

140:                                              ; preds = %139
  %141 = load i32, i32* %6, align 4
  %142 = add nsw i32 %141, 1
  store i32 %142, i32* %6, align 4
  br label %127

143:                                              ; preds = %138, %127
  %144 = load i32, i32* %6, align 4
  store i32 %144, i32* %7, align 4
  br label %145

145:                                              ; preds = %156, %143
  %146 = load i32, i32* %7, align 4
  %147 = load i32, i32* %4, align 4
  %148 = icmp slt i32 %146, %147
  br i1 %148, label %149, label %159

149:                                              ; preds = %145
  %150 = load i32, i32* %7, align 4
  %151 = sext i32 %150 to i64
  %152 = getelementptr inbounds [100 x i8], [100 x i8]* %3, i64 0, i64 %151
  %153 = load i8, i8* %152, align 1
  %154 = sext i8 %153 to i32
  %155 = call i32 (i8*, ...) @printf(i8* getelementptr inbounds ([3 x i8], [3 x i8]* @.str.2, i64 0, i64 0), i32 %154)
  br label %156

156:                                              ; preds = %149
  %157 = load i32, i32* %7, align 4
  %158 = add nsw i32 %157, 1
  store i32 %158, i32* %7, align 4
  br label %145

159:                                              ; preds = %145
  %160 = call i32 (i8*, ...) @printf(i8* getelementptr inbounds ([2 x i8], [2 x i8]* @.str.3, i64 0, i64 0))
  %161 = load i32, i32* %9, align 4
  %162 = add nsw i32 %161, 1
  store i32 %162, i32* %9, align 4
  br label %12

163:                                              ; preds = %12
  ret void
}

; Function Attrs: argmemonly nounwind willreturn
declare void @llvm.memset.p0i8.i64(i8* nocapture writeonly, i8, i64, i1 immarg) #1

declare dso_local i32 @__isoc99_scanf(i8*, ...) #2

; Function Attrs: nounwind readonly
declare dso_local i64 @strlen(i8*) #3

declare dso_local i32 @printf(i8*, ...) #2


!llvm.module.flags = !{!0}
!llvm.ident = !{!1}

!0 = !{i32 1, !"wchar_size", i32 4}
!1 = !{!"clang version 10.0.0-4ubuntu1 "}
